target datalayout = "e-m:e-p270:32:32-p271:32:32-p272:64:64-i64:64-i128:128-f80:128-n8:16:32:64-S128"
target triple = "x86_64-pc-linux-gnu"

%struct.ASN1_ITEM_st = type { i8, i64, ptr, i64, ptr, i64, ptr }
%struct.ASN1_PRIMITIVE_FUNCS_st = type { ptr, i64, ptr, ptr, ptr, ptr, ptr, ptr }
%struct.asn1_type_st = type { i32, %union.anon }
%union.anon = type { ptr }

@.str = private unnamed_addr constant [34 x i8] c"../openssl/crypto/asn1/tasn_fre.c\00", align 1

; Function Attrs: nounwind uwtable
define void @ossl_asn1_primitive_free(ptr noundef %0, ptr noundef %1, i32 noundef %2) #0 {
  %4 = alloca ptr, align 8
  %5 = alloca ptr, align 8
  %6 = alloca i32, align 4
  %7 = alloca i32, align 4
  %8 = alloca ptr, align 8
  %9 = alloca i32, align 4
  %10 = alloca ptr, align 8
  store ptr %0, ptr %4, align 8, !tbaa !10
  store ptr %1, ptr %5, align 8, !tbaa !8
  store i32 %2, ptr %6, align 4, !tbaa !12
  call void @llvm.lifetime.start.p0(i64 4, ptr %7) #5
  %11 = load ptr, ptr %5, align 8, !tbaa !8
  %12 = icmp ne ptr %11, null
  br i1 %12, label %13, label %53

13:                                               ; preds = %3
  call void @llvm.lifetime.start.p0(i64 8, ptr %8) #5
  %14 = load ptr, ptr %5, align 8, !tbaa !8
  %15 = getelementptr inbounds nuw %struct.ASN1_ITEM_st, ptr %14, i32 0, i32 4
  %16 = load ptr, ptr %15, align 8, !tbaa !16
  store ptr %16, ptr %8, align 8, !tbaa !40
  %17 = load i32, ptr %6, align 4, !tbaa !12
  %18 = icmp ne i32 %17, 0
  br i1 %18, label %19, label %34

19:                                               ; preds = %13
  %20 = load ptr, ptr %8, align 8, !tbaa !40
  %21 = icmp ne ptr %20, null
  br i1 %21, label %22, label %33

22:                                               ; preds = %19
  %23 = load ptr, ptr %8, align 8, !tbaa !40
  %24 = getelementptr inbounds nuw %struct.ASN1_PRIMITIVE_FUNCS_st, ptr %23, i32 0, i32 4
  %25 = load ptr, ptr %24, align 8, !tbaa !42
  %26 = icmp ne ptr %25, null
  br i1 %26, label %27, label %33

27:                                               ; preds = %22
  %28 = load ptr, ptr %8, align 8, !tbaa !40
  %29 = getelementptr inbounds nuw %struct.ASN1_PRIMITIVE_FUNCS_st, ptr %28, i32 0, i32 4
  %30 = load ptr, ptr %29, align 8, !tbaa !42
  %31 = load ptr, ptr %4, align 8, !tbaa !10
  %32 = load ptr, ptr %5, align 8, !tbaa !8
  call void %30(ptr noundef %31, ptr noundef %32)
  store i32 1, ptr %9, align 4
  br label %50

33:                                               ; preds = %22, %19
  br label %49

34:                                               ; preds = %13
  %35 = load ptr, ptr %8, align 8, !tbaa !40
  %36 = icmp ne ptr %35, null
  br i1 %36, label %37, label %48

37:                                               ; preds = %34
  %38 = load ptr, ptr %8, align 8, !tbaa !40
  %39 = getelementptr inbounds nuw %struct.ASN1_PRIMITIVE_FUNCS_st, ptr %38, i32 0, i32 3
  %40 = load ptr, ptr %39, align 8, !tbaa !44
  %41 = icmp ne ptr %40, null
  br i1 %41, label %42, label %48

42:                                               ; preds = %37
  %43 = load ptr, ptr %8, align 8, !tbaa !40
  %44 = getelementptr inbounds nuw %struct.ASN1_PRIMITIVE_FUNCS_st, ptr %43, i32 0, i32 3
  %45 = load ptr, ptr %44, align 8, !tbaa !44
  %46 = load ptr, ptr %4, align 8, !tbaa !10
  %47 = load ptr, ptr %5, align 8, !tbaa !8
  call void %45(ptr noundef %46, ptr noundef %47)
  store i32 1, ptr %9, align 4
  br label %50

48:                                               ; preds = %37, %34
  br label %49

49:                                               ; preds = %48, %33
  store i32 0, ptr %9, align 4
  br label %50

50:                                               ; preds = %49, %42, %27
  call void @llvm.lifetime.end.p0(i64 8, ptr %8) #5
  %51 = load i32, ptr %9, align 4
  switch i32 %51, label %125 [
    i32 0, label %52
  ]

52:                                               ; preds = %50
  br label %53

53:                                               ; preds = %52, %3
  %54 = load ptr, ptr %5, align 8, !tbaa !8
  %55 = icmp ne ptr %54, null
  br i1 %55, label %72, label %56

56:                                               ; preds = %53
  call void @llvm.lifetime.start.p0(i64 8, ptr %10) #5
  %57 = load ptr, ptr %4, align 8, !tbaa !10
  %58 = load ptr, ptr %57, align 8, !tbaa !3
  store ptr %58, ptr %10, align 8, !tbaa !45
  %59 = load ptr, ptr %10, align 8, !tbaa !45
  %60 = getelementptr inbounds nuw %struct.asn1_type_st, ptr %59, i32 0, i32 0
  %61 = load i32, ptr %60, align 8, !tbaa !47
  store i32 %61, ptr %7, align 4, !tbaa !12
  %62 = load ptr, ptr %10, align 8, !tbaa !45
  %63 = getelementptr inbounds nuw %struct.asn1_type_st, ptr %62, i32 0, i32 1
  store ptr %63, ptr %4, align 8, !tbaa !10
  %64 = load ptr, ptr %4, align 8, !tbaa !10
  %65 = load ptr, ptr %64, align 8, !tbaa !3
  %66 = icmp eq ptr %65, null
  br i1 %66, label %67, label %68

67:                                               ; preds = %56
  store i32 1, ptr %9, align 4
  br label %69

68:                                               ; preds = %56
  store i32 0, ptr %9, align 4
  br label %69

69:                                               ; preds = %68, %67
  call void @llvm.lifetime.end.p0(i64 8, ptr %10) #5
  %70 = load i32, ptr %9, align 4
  switch i32 %70, label %125 [
    i32 0, label %71
  ]

71:                                               ; preds = %69
  br label %98

72:                                               ; preds = %53
  %73 = load ptr, ptr %5, align 8, !tbaa !8
  %74 = getelementptr inbounds nuw %struct.ASN1_ITEM_st, ptr %73, i32 0, i32 0
  %75 = load i8, ptr %74, align 8, !tbaa !22
  %76 = sext i8 %75 to i32
  %77 = icmp eq i32 %76, 5
  br i1 %77, label %78, label %84

78:                                               ; preds = %72
  store i32 -1, ptr %7, align 4, !tbaa !12
  %79 = load ptr, ptr %4, align 8, !tbaa !10
  %80 = load ptr, ptr %79, align 8, !tbaa !3
  %81 = icmp eq ptr %80, null
  br i1 %81, label %82, label %83

82:                                               ; preds = %78
  store i32 1, ptr %9, align 4
  br label %125

83:                                               ; preds = %78
  br label %97

84:                                               ; preds = %72
  %85 = load ptr, ptr %5, align 8, !tbaa !8
  %86 = getelementptr inbounds nuw %struct.ASN1_ITEM_st, ptr %85, i32 0, i32 1
  %87 = load i64, ptr %86, align 8, !tbaa !49
  %88 = trunc i64 %87 to i32
  store i32 %88, ptr %7, align 4, !tbaa !12
  %89 = load i32, ptr %7, align 4, !tbaa !12
  %90 = icmp ne i32 %89, 1
  br i1 %90, label %91, label %96

91:                                               ; preds = %84
  %92 = load ptr, ptr %4, align 8, !tbaa !10
  %93 = load ptr, ptr %92, align 8, !tbaa !3
  %94 = icmp eq ptr %93, null
  br i1 %94, label %95, label %96

95:                                               ; preds = %91
  store i32 1, ptr %9, align 4
  br label %125

96:                                               ; preds = %91, %84
  br label %97

97:                                               ; preds = %96, %83
  br label %98

98:                                               ; preds = %97, %71
  %99 = load i32, ptr %7, align 4, !tbaa !12
  switch i32 %99, label %119 [
    i32 6, label %100
    i32 1, label %103
    i32 5, label %123
    i32 -4, label %115
  ]

100:                                              ; preds = %98
  %101 = load ptr, ptr %4, align 8, !tbaa !10
  %102 = load ptr, ptr %101, align 8, !tbaa !3
  call void @ASN1_OBJECT_free(ptr noundef %102)
  br label %123

103:                                              ; preds = %98
  %104 = load ptr, ptr %5, align 8, !tbaa !8
  %105 = icmp ne ptr %104, null
  br i1 %105, label %106, label %112

106:                                              ; preds = %103
  %107 = load ptr, ptr %5, align 8, !tbaa !8
  %108 = getelementptr inbounds nuw %struct.ASN1_ITEM_st, ptr %107, i32 0, i32 5
  %109 = load i64, ptr %108, align 8, !tbaa !50
  %110 = trunc i64 %109 to i32
  %111 = load ptr, ptr %4, align 8, !tbaa !10
  store i32 %110, ptr %111, align 4, !tbaa !12
  br label %114

112:                                              ; preds = %103
  %113 = load ptr, ptr %4, align 8, !tbaa !10
  store i32 -1, ptr %113, align 4, !tbaa !12
  br label %114

114:                                              ; preds = %112, %106
  store i32 1, ptr %9, align 4
  br label %125

115:                                              ; preds = %98
  %116 = load ptr, ptr %4, align 8, !tbaa !10
  call void @ossl_asn1_primitive_free(ptr noundef %116, ptr noundef null, i32 noundef 0)
  %117 = load ptr, ptr %4, align 8, !tbaa !10
  %118 = load ptr, ptr %117, align 8, !tbaa !3
  call void @CRYPTO_free(ptr noundef %118, ptr noundef @.str, i32 noundef 204)
  br label %123

119:                                              ; preds = %98
  %120 = load ptr, ptr %4, align 8, !tbaa !10
  %121 = load ptr, ptr %120, align 8, !tbaa !3
  %122 = load i32, ptr %6, align 4, !tbaa !12
  call void @ossl_asn1_string_embed_free(ptr noundef %121, i32 noundef %122)
  br label %123

123:                                              ; preds = %119, %115, %98, %100
  %124 = load ptr, ptr %4, align 8, !tbaa !10
  store ptr null, ptr %124, align 8, !tbaa !3
  store i32 0, ptr %9, align 4
  br label %125

125:                                              ; preds = %123, %114, %95, %82, %69, %50
  call void @llvm.lifetime.end.p0(i64 4, ptr %7) #5
  %126 = load i32, ptr %9, align 4
  switch i32 %126, label %128 [
    i32 0, label %127
    i32 1, label %127
  ]

127:                                              ; preds = %125, %125
  ret void

128:                                              ; preds = %125
  unreachable
}