; Function Attrs: nounwind uwtable
define void @ossl_asn1_primitive_free(ptr noundef %0, ptr noundef %1, i32 noundef %2) local_unnamed_addr #0 {
  %.not = icmp eq ptr %1, null
  br i1 %.not, label %.critedge54, label %4

4:                                                ; preds = %3
  %5 = getelementptr inbounds nuw i8, ptr %1, i64 32
  %6 = load ptr, ptr %5, align 8, !tbaa !8
  %.not46 = icmp eq i32 %2, 0
  %.not47 = icmp eq ptr %6, null
  br i1 %.not46, label %12, label %7

7:                                                ; preds = %4
  br i1 %.not47, label %21, label %8

8:                                                ; preds = %7
  %9 = getelementptr inbounds nuw i8, ptr %6, i64 32
  %10 = load ptr, ptr %9, align 8, !tbaa !27
  %.not50 = icmp eq ptr %10, null
  br i1 %.not50, label %21, label %11

11:                                               ; preds = %8
  tail call void %10(ptr noundef %0, ptr noundef nonnull %1) #4
  br label %.critedge

12:                                               ; preds = %4
  br i1 %.not47, label %21, label %13

13:                                               ; preds = %12
  %14 = getelementptr inbounds nuw i8, ptr %6, i64 24
  %15 = load ptr, ptr %14, align 8, !tbaa !29
  %.not48 = icmp eq ptr %15, null
  br i1 %.not48, label %21, label %16

16:                                               ; preds = %13
  tail call void %15(ptr noundef %0, ptr noundef nonnull %1) #4
  br label %.critedge

.critedge54:                                      ; preds = %3
  %17 = load ptr, ptr %0, align 8, !tbaa !3
  %18 = load i32, ptr %17, align 8, !tbaa !30
  %19 = getelementptr inbounds nuw i8, ptr %17, i64 8
  %20 = load ptr, ptr %19, align 8, !tbaa !3
  %.not51 = icmp eq ptr %20, null
  br i1 %.not51, label %.critedge, label %34

21:                                               ; preds = %8, %7, %13, %12
  %22 = load i8, ptr %1, align 8, !tbaa !13
  %23 = icmp eq i8 %22, 5
  br i1 %23, label %24, label %27

24:                                               ; preds = %21
  %25 = load ptr, ptr %0, align 8, !tbaa !3
  %26 = icmp eq ptr %25, null
  br i1 %26, label %.critedge, label %.thread

27:                                               ; preds = %21
  %28 = getelementptr inbounds nuw i8, ptr %1, i64 8
  %29 = load i64, ptr %28, align 8, !tbaa !32
  %30 = trunc i64 %29 to i32
  %.not52 = icmp eq i32 %30, 1
  br i1 %.not52, label %.thread63, label %31

31:                                               ; preds = %27
  %32 = load ptr, ptr %0, align 8, !tbaa !3
  %33 = icmp eq ptr %32, null
  br i1 %33, label %.critedge, label %34

34:                                               ; preds = %31, %.critedge54
  %35 = phi ptr [ %32, %31 ], [ %20, %.critedge54 ]
  %.037 = phi i32 [ %30, %31 ], [ %18, %.critedge54 ]
  %.0 = phi ptr [ %0, %31 ], [ %19, %.critedge54 ]
  switch i32 %.037, label %.thread [
    i32 6, label %36
    i32 1, label %37
    i32 5, label %45
    i32 -4, label %42
  ]

36:                                               ; preds = %34
  tail call void @ASN1_OBJECT_free(ptr noundef nonnull %35) #4
  br label %45

37:                                               ; preds = %34
  br i1 %.not, label %41, label %.thread63

.thread63:                                        ; preds = %27, %37
  %.06265 = phi ptr [ %.0, %37 ], [ %0, %27 ]
  %38 = getelementptr inbounds nuw i8, ptr %1, i64 40
  %39 = load i64, ptr %38, align 8, !tbaa !33
  %40 = trunc i64 %39 to i32
  br label %41

41:                                               ; preds = %37, %.thread63
  %.06266 = phi ptr [ %.06265, %.thread63 ], [ %.0, %37 ]
  %storemerge = phi i32 [ %40, %.thread63 ], [ -1, %37 ]
  store i32 %storemerge, ptr %.06266, align 4, !tbaa !34
  br label %.critedge

42:                                               ; preds = %34
  tail call void @ossl_asn1_primitive_free(ptr noundef nonnull %.0, ptr noundef null, i32 noundef 0)
  %43 = load ptr, ptr %.0, align 8, !tbaa !3
  tail call void @CRYPTO_free(ptr noundef %43, ptr noundef nonnull @.str, i32 noundef 204) #4
  br label %45

.thread:                                          ; preds = %24, %34
  %44 = phi ptr [ %35, %34 ], [ %25, %24 ]
  %.057 = phi ptr [ %.0, %34 ], [ %0, %24 ]
  tail call void @ossl_asn1_string_embed_free(ptr noundef nonnull %44, i32 noundef %2) #4
  br label %45

45:                                               ; preds = %.thread, %42, %36, %34
  %.058 = phi ptr [ %.057, %.thread ], [ %.0, %42 ], [ %.0, %36 ], [ %.0, %34 ]
  store ptr null, ptr %.058, align 8, !tbaa !3
  br label %.critedge

.critedge:                                        ; preds = %11, %16, %31, %24, %.critedge54, %45, %41
  ret void
}